target datalayout = "e-m:e-p270:32:32-p271:32:32-p272:64:64-i64:64-i128:128-f80:128-n8:16:32:64-S128"
target triple = "x86_64-pc-linux-gnu"

@hf_sml_length = internal global i32 0, align 4
@hf_sml_username = internal global i32 0, align 4
@ett_sml_username = internal global i32 0, align 4
@.str.297 = private unnamed_addr constant [10 x i8] c": NOT SET\00", align 1
@.str.298 = private unnamed_addr constant [1 x i8] zeroinitializer, align 1
@.str.302 = private unnamed_addr constant [12 x i8] c"Username %s\00", align 1

; Function Attrs: null_pointer_is_valid sspstrong uwtable
define internal void @get_length(ptr noundef %0, ptr noundef %1, ptr noundef %2, ptr noundef %3) #0 {
  %5 = alloca ptr, align 8
  %6 = alloca ptr, align 8
  %7 = alloca ptr, align 8
  %8 = alloca ptr, align 8
  %9 = alloca i32, align 4
  %10 = alloca i32, align 4
  store ptr %0, ptr %5, align 8
  store ptr %1, ptr %6, align 8
  store ptr %2, ptr %7, align 8
  store ptr %3, ptr %8, align 8
  call void @llvm.lifetime.start.p0(i64 4, ptr %9) #4
  store i32 0, ptr %9, align 4
  call void @llvm.lifetime.start.p0(i64 4, ptr %10) #4
  store i32 0, ptr %10, align 4
  %11 = load ptr, ptr %6, align 8
  %12 = load i32, ptr %11, align 4
  store i32 %12, ptr %10, align 4
  %13 = load ptr, ptr %7, align 8
  store i32 0, ptr %13, align 4
  %14 = load ptr, ptr %8, align 8
  store i32 0, ptr %14, align 4
  %15 = load ptr, ptr %5, align 8
  %16 = load i32, ptr %10, align 4
  %17 = call zeroext i8 @tvb_get_uint8(ptr noundef %15, i32 noundef %16)
  %18 = zext i8 %17 to i32
  store i32 %18, ptr %9, align 4
  %19 = load i32, ptr %9, align 4
  %20 = icmp eq i32 %19, 1
  br i1 %20, label %21, label %23

21:                                               ; preds = %4
  %22 = load ptr, ptr %8, align 8
  store i32 1, ptr %22, align 4
  br label %81

23:                                               ; preds = %4
  %24 = load i32, ptr %9, align 4
  %25 = and i32 %24, 128
  %26 = icmp eq i32 %25, 128
  br i1 %26, label %27, label %69

27:                                               ; preds = %23
  br label %28

28:                                               ; preds = %32, %27
  %29 = load i32, ptr %9, align 4
  %30 = and i32 %29, 128
  %31 = icmp eq i32 %30, 128
  br i1 %31, label %32, label %52

32:                                               ; preds = %28
  %33 = load i32, ptr %9, align 4
  %34 = and i32 %33, 15
  store i32 %34, ptr %9, align 4
  %35 = load ptr, ptr %7, align 8
  %36 = load i32, ptr %35, align 4
  %37 = load i32, ptr %9, align 4
  %38 = add i32 %36, %37
  %39 = load ptr, ptr %7, align 8
  store i32 %38, ptr %39, align 4
  %40 = load ptr, ptr %7, align 8
  %41 = load i32, ptr %40, align 4
  %42 = shl i32 %41, 4
  store i32 %42, ptr %40, align 4
  %43 = load ptr, ptr %8, align 8
  %44 = load i32, ptr %43, align 4
  %45 = add i32 %44, 1
  store i32 %45, ptr %43, align 4
  %46 = load i32, ptr %10, align 4
  %47 = add i32 %46, 1
  store i32 %47, ptr %10, align 4
  %48 = load ptr, ptr %5, align 8
  %49 = load i32, ptr %10, align 4
  %50 = call zeroext i8 @tvb_get_uint8(ptr noundef %48, i32 noundef %49)
  %51 = zext i8 %50 to i32
  store i32 %51, ptr %9, align 4
  br label %28, !llvm.loop !12

52:                                               ; preds = %28
  %53 = load i32, ptr %9, align 4
  %54 = and i32 %53, 15
  store i32 %54, ptr %9, align 4
  %55 = load ptr, ptr %7, align 8
  %56 = load i32, ptr %55, align 4
  %57 = load i32, ptr %9, align 4
  %58 = add i32 %56, %57
  %59 = load ptr, ptr %7, align 8
  store i32 %58, ptr %59, align 4
  %60 = load ptr, ptr %8, align 8
  %61 = load i32, ptr %60, align 4
  %62 = add i32 %61, 1
  store i32 %62, ptr %60, align 4
  %63 = load ptr, ptr %7, align 8
  %64 = load i32, ptr %63, align 4
  %65 = load ptr, ptr %8, align 8
  %66 = load i32, ptr %65, align 4
  %67 = sub i32 %64, %66
  %68 = load ptr, ptr %7, align 8
  store i32 %67, ptr %68, align 4
  br label %80

69:                                               ; preds = %23
  %70 = load i32, ptr %9, align 4
  %71 = and i32 %70, 15
  store i32 %71, ptr %9, align 4
  %72 = load ptr, ptr %8, align 8
  %73 = load i32, ptr %72, align 4
  %74 = add i32 %73, 1
  store i32 %74, ptr %72, align 4
  %75 = load i32, ptr %9, align 4
  %76 = load ptr, ptr %8, align 8
  %77 = load i32, ptr %76, align 4
  %78 = sub i32 %75, %77
  %79 = load ptr, ptr %7, align 8
  store i32 %78, ptr %79, align 4
  br label %80

80:                                               ; preds = %69, %52
  br label %81

81:                                               ; preds = %80, %21
  call void @llvm.lifetime.end.p0(i64 4, ptr %10) #4
  call void @llvm.lifetime.end.p0(i64 4, ptr %9) #4
  ret void
}

; Function Attrs: null_pointer_is_valid sspstrong uwtable
define internal void @field_username(ptr noundef %0, ptr noundef %1, ptr noundef %2, ptr noundef %3, ptr noundef %4) #0 {
  %6 = alloca ptr, align 8
  %7 = alloca ptr, align 8
  %8 = alloca ptr, align 8
  %9 = alloca ptr, align 8
  %10 = alloca ptr, align 8
  %11 = alloca ptr, align 8
  %12 = alloca ptr, align 8
  store ptr %0, ptr %6, align 8
  store ptr %1, ptr %7, align 8
  store ptr %2, ptr %8, align 8
  store ptr %3, ptr %9, align 8
  store ptr %4, ptr %10, align 8
  call void @llvm.lifetime.start.p0(i64 8, ptr %11) #4
  store ptr null, ptr %11, align 8
  call void @llvm.lifetime.start.p0(i64 8, ptr %12) #4
  store ptr null, ptr %12, align 8
  %13 = load ptr, ptr %6, align 8
  %14 = load ptr, ptr %8, align 8
  %15 = load ptr, ptr %9, align 8
  %16 = load ptr, ptr %10, align 8
  call void @get_length(ptr noundef %13, ptr noundef %14, ptr noundef %15, ptr noundef %16)
  %17 = load ptr, ptr %7, align 8
  %18 = load i32, ptr @hf_sml_username, align 4
  %19 = load ptr, ptr %6, align 8
  %20 = load ptr, ptr %8, align 8
  %21 = load i32, ptr %20, align 4
  %22 = load ptr, ptr %10, align 8
  %23 = load i32, ptr %22, align 4
  %24 = load ptr, ptr %9, align 8
  %25 = load i32, ptr %24, align 4
  %26 = add i32 %23, %25
  %27 = load ptr, ptr %9, align 8
  %28 = load i32, ptr %27, align 4
  %29 = icmp eq i32 %28, 0
  %30 = select i1 %29, ptr @.str.297, ptr @.str.298
  %31 = call ptr (ptr, i32, ptr, i32, i32, ptr, ptr, ...) @proto_tree_add_string_format(ptr noundef %17, i32 noundef %18, ptr noundef %19, i32 noundef %21, i32 noundef %26, ptr noundef null, ptr noundef @.str.302, ptr noundef %30)
  store ptr %31, ptr %11, align 8
  %32 = load ptr, ptr %9, align 8
  %33 = load i32, ptr %32, align 4
  %34 = icmp ugt i32 %33, 0
  br i1 %34, label %35, label %67

35:                                               ; preds = %5
  %36 = load ptr, ptr %11, align 8
  %37 = load i32, ptr @ett_sml_username, align 4
  %38 = call ptr @proto_item_add_subtree(ptr noundef %36, i32 noundef %37)
  store ptr %38, ptr %12, align 8
  %39 = load ptr, ptr %12, align 8
  %40 = load i32, ptr @hf_sml_length, align 4
  %41 = load ptr, ptr %6, align 8
  %42 = load ptr, ptr %8, align 8
  %43 = load i32, ptr %42, align 4
  %44 = load ptr, ptr %10, align 8
  %45 = load i32, ptr %44, align 4
  %46 = load ptr, ptr %9, align 8
  %47 = load i32, ptr %46, align 4
  %48 = call ptr @proto_tree_add_uint(ptr noundef %39, i32 noundef %40, ptr noundef %41, i32 noundef %43, i32 noundef %45, i32 noundef %47)
  %49 = load ptr, ptr %10, align 8
  %50 = load i32, ptr %49, align 4
  %51 = load ptr, ptr %8, align 8
  %52 = load i32, ptr %51, align 4
  %53 = add i32 %52, %50
  store i32 %53, ptr %51, align 4
  %54 = load ptr, ptr %12, align 8
  %55 = load i32, ptr @hf_sml_username, align 4
  %56 = load ptr, ptr %6, align 8
  %57 = load ptr, ptr %8, align 8
  %58 = load i32, ptr %57, align 4
  %59 = load ptr, ptr %9, align 8
  %60 = load i32, ptr %59, align 4
  %61 = call ptr @proto_tree_add_item(ptr noundef %54, i32 noundef %55, ptr noundef %56, i32 noundef %58, i32 noundef %60, i32 noundef 0)
  %62 = load ptr, ptr %9, align 8
  %63 = load i32, ptr %62, align 4
  %64 = load ptr, ptr %8, align 8
  %65 = load i32, ptr %64, align 4
  %66 = add i32 %65, %63
  store i32 %66, ptr %64, align 4
  br label %71

67:                                               ; preds = %5
  %68 = load ptr, ptr %8, align 8
  %69 = load i32, ptr %68, align 4
  %70 = add i32 %69, 1
  store i32 %70, ptr %68, align 4
  br label %71

71:                                               ; preds = %67, %35
  call void @llvm.lifetime.end.p0(i64 8, ptr %12) #4
  call void @llvm.lifetime.end.p0(i64 8, ptr %11) #4
  ret void
}