; Function Attrs: null_pointer_is_valid sspstrong uwtable
define internal fastcc void @field_username(ptr noundef %0, ptr noundef %1, ptr noundef captures(none) %2, ptr noundef captures(none) initializes((0, 4)) %3, ptr noundef captures(none) initializes((0, 4)) %4) unnamed_addr #0 {
  %.val = load i32, ptr %2, align 4
  store i32 0, ptr %3, align 4
  store i32 0, ptr %4, align 4
  %6 = tail call zeroext i8 @tvb_get_uint8(ptr noundef %0, i32 noundef %.val)
  %7 = zext i8 %6 to i32
  %8 = icmp eq i8 %6, 1
  br i1 %8, label %9, label %10

9:                                                ; preds = %5
  store i32 1, ptr %4, align 4
  %.pre = load i32, ptr %3, align 4
  br label %get_length.exit

10:                                               ; preds = %5
  %.not.i = icmp sgt i8 %6, -1
  br i1 %.not.i, label %28, label %.preheader.i

.preheader.i:                                     ; preds = %10, %.preheader.i
  %.02.i = phi i32 [ %17, %.preheader.i ], [ %.val, %10 ]
  %.0301.i = phi i32 [ %19, %.preheader.i ], [ %7, %10 ]
  %11 = and i32 %.0301.i, 15
  %12 = load i32, ptr %3, align 4
  %13 = add i32 %12, %11
  %14 = shl i32 %13, 4
  store i32 %14, ptr %3, align 4
  %15 = load i32, ptr %4, align 4
  %16 = add i32 %15, 1
  store i32 %16, ptr %4, align 4
  %17 = add i32 %.02.i, 1
  %18 = tail call zeroext i8 @tvb_get_uint8(ptr noundef %0, i32 noundef %17)
  %19 = zext i8 %18 to i32
  %.not32.i = icmp sgt i8 %18, -1
  br i1 %.not32.i, label %20, label %.preheader.i, !llvm.loop !8

20:                                               ; preds = %.preheader.i
  %21 = and i32 %19, 15
  %22 = load i32, ptr %3, align 4
  %23 = add i32 %22, %21
  store i32 %23, ptr %3, align 4
  %24 = load i32, ptr %4, align 4
  %25 = add i32 %24, 1
  store i32 %25, ptr %4, align 4
  %26 = load i32, ptr %3, align 4
  %27 = sub i32 %26, %25
  store i32 %27, ptr %3, align 4
  br label %get_length.exit

28:                                               ; preds = %10
  %29 = and i32 %7, 15
  %30 = load i32, ptr %4, align 4
  %31 = add i32 %30, 1
  store i32 %31, ptr %4, align 4
  %32 = sub i32 %29, %31
  store i32 %32, ptr %3, align 4
  br label %get_length.exit

get_length.exit:                                  ; preds = %9, %20, %28
  %33 = phi i32 [ %.pre, %9 ], [ %27, %20 ], [ %32, %28 ]
  %34 = load i32, ptr @hf_sml_username, align 4
  %35 = load i32, ptr %2, align 4
  %36 = load i32, ptr %4, align 4
  %37 = add i32 %33, %36
  %38 = icmp eq i32 %33, 0
  %39 = select i1 %38, ptr @.str.297, ptr @.str.298
  %40 = tail call ptr (ptr, i32, ptr, i32, i32, ptr, ptr, ...) @proto_tree_add_string_format(ptr noundef %1, i32 noundef %34, ptr noundef %0, i32 noundef %35, i32 noundef %37, ptr noundef null, ptr noundef nonnull @.str.302, ptr noundef nonnull %39)
  %41 = load i32, ptr %3, align 4
  %.not = icmp eq i32 %41, 0
  br i1 %.not, label %57, label %42

42:                                               ; preds = %get_length.exit
  %43 = load i32, ptr @ett_sml_username, align 4
  %44 = tail call ptr @proto_item_add_subtree(ptr noundef %40, i32 noundef %43)
  %45 = load i32, ptr @hf_sml_length, align 4
  %46 = load i32, ptr %2, align 4
  %47 = load i32, ptr %4, align 4
  %48 = load i32, ptr %3, align 4
  %49 = tail call ptr @proto_tree_add_uint(ptr noundef %44, i32 noundef %45, ptr noundef %0, i32 noundef %46, i32 noundef %47, i32 noundef %48)
  %50 = load i32, ptr %4, align 4
  %51 = load i32, ptr %2, align 4
  %52 = add i32 %51, %50
  store i32 %52, ptr %2, align 4
  %53 = load i32, ptr @hf_sml_username, align 4
  %54 = load i32, ptr %3, align 4
  %55 = tail call ptr @proto_tree_add_item(ptr noundef %44, i32 noundef %53, ptr noundef %0, i32 noundef %52, i32 noundef %54, i32 noundef 0)
  %56 = load i32, ptr %3, align 4
  br label %57

57:                                               ; preds = %get_length.exit, %42
  %.sink26 = phi i32 [ %56, %42 ], [ 1, %get_length.exit ]
  %58 = load i32, ptr %2, align 4
  %59 = add i32 %58, %.sink26
  store i32 %59, ptr %2, align 4
  ret void
}